target datalayout = "e-m:e-p270:32:32-p271:32:32-p272:64:64-i64:64-i128:128-f80:128-n8:16:32:64-S128"
target triple = "x86_64-pc-linux-gnu"

%struct.QemuMutex = type { %union.pthread_mutex_t, i8 }
%union.pthread_mutex_t = type { %struct.__pthread_mutex_s }
%struct.__pthread_mutex_s = type { i32, i32, i32, i32, i32, i16, i16, %struct.__pthread_internal_list }
%struct.__pthread_internal_list = type { ptr, ptr }
%struct.Job = type { ptr, ptr, ptr, i8, i8, ptr, ptr, %struct.ProgressMeter, ptr, i32, i32, %struct.QEMUTimer, i32, i8, i8, i8, i8, i8, i8, i32, ptr, %struct.NotifierList, %struct.NotifierList, %struct.NotifierList, %struct.NotifierList, %struct.NotifierList, %struct.anon.1, ptr, %struct.anon.2 }
%struct.ProgressMeter = type { i64, i64, %struct.QemuMutex }
%struct.QEMUTimer = type { i64, ptr, ptr, ptr, ptr, i32, i32 }
%struct.NotifierList = type { %struct.anon.0 }
%struct.anon.0 = type { ptr }
%struct.anon.1 = type { ptr, ptr }
%struct.anon.2 = type { ptr, ptr }

@qemu_mutex_lock_func = external global ptr, align 8
@job_mutex = dso_local global %struct.QemuMutex zeroinitializer, align 8
@.str = private unnamed_addr constant [14 x i8] c"../qemu/job.c\00", align 1
@.str.15 = private unnamed_addr constant [28 x i8] c"!job->deferred_to_main_loop\00", align 1
@__PRETTY_FUNCTION__.job_enter_cond_locked = private unnamed_addr constant [52 x i8] c"void job_enter_cond_locked(Job *, _Bool (*)(Job *))\00", align 1
@__func__.job_user_pause_locked = private unnamed_addr constant [22 x i8] c"job_user_pause_locked\00", align 1
@.str.18 = private unnamed_addr constant [22 x i8] c"Job is already paused\00", align 1

; Function Attrs: nounwind sspstrong uwtable
define dso_local void @job_lock() #0 {
  %1 = alloca ptr, align 8
  %2 = alloca ptr, align 8
  %3 = alloca ptr, align 8
  call void @llvm.lifetime.start.p0(i64 8, ptr %1) #16
  br label %4

4:                                                ; preds = %0
  br i1 false, label %5, label %6

5:                                                ; preds = %4
  call void @qemu_build_not_reached_always() #17, !srcloc !4
  unreachable

6:                                                ; preds = %4
  %7 = load atomic i64, ptr @qemu_mutex_lock_func monotonic, align 8
  store i64 %7, ptr %3, align 8
  %8 = load ptr, ptr %3, align 8
  store ptr %8, ptr %2, align 8
  %9 = load ptr, ptr %2, align 8
  store ptr %9, ptr %1, align 8
  %10 = load ptr, ptr %1, align 8
  call void %10(ptr noundef @job_mutex, ptr noundef @.str, i32 noundef 101)
  call void @llvm.lifetime.end.p0(i64 8, ptr %1) #16
  ret void
}

; Function Attrs: nounwind sspstrong uwtable
define dso_local void @job_unlock() #0 {
  call void @qemu_mutex_unlock_impl(ptr noundef @job_mutex, ptr noundef @.str, i32 noundef 106)
  ret void
}

; Function Attrs: nounwind sspstrong uwtable
define internal zeroext i1 @job_started_locked(ptr noundef %0) #0 {
  %2 = alloca ptr, align 8
  store ptr %0, ptr %2, align 8
  %3 = load ptr, ptr %2, align 8
  %4 = getelementptr inbounds nuw %struct.Job, ptr %3, i32 0, i32 2
  %5 = load ptr, ptr %4, align 8
  %6 = icmp ne ptr %5, null
  ret i1 %6
}

; Function Attrs: nounwind sspstrong uwtable
define dso_local void @job_enter_cond_locked(ptr noundef %0, ptr noundef %1) #0 {
  %3 = alloca ptr, align 8
  %4 = alloca ptr, align 8
  store ptr %0, ptr %3, align 8
  store ptr %1, ptr %4, align 8
  %5 = load ptr, ptr %3, align 8
  %6 = call zeroext i1 @job_started_locked(ptr noundef %5)
  br i1 %6, label %8, label %7

7:                                                ; preds = %2
  br label %43

8:                                                ; preds = %2
  %9 = load ptr, ptr %3, align 8
  %10 = getelementptr inbounds nuw %struct.Job, ptr %9, i32 0, i32 18
  %11 = load i8, ptr %10, align 1, !range !7, !noundef !8
  %12 = trunc i8 %11 to i1
  br i1 %12, label %13, label %14

13:                                               ; preds = %8
  br label %43

14:                                               ; preds = %8
  %15 = load ptr, ptr %3, align 8
  %16 = getelementptr inbounds nuw %struct.Job, ptr %15, i32 0, i32 13
  %17 = load i8, ptr %16, align 4, !range !7, !noundef !8
  %18 = trunc i8 %17 to i1
  br i1 %18, label %19, label %20

19:                                               ; preds = %14
  br label %43

20:                                               ; preds = %14
  %21 = load ptr, ptr %4, align 8
  %22 = icmp ne ptr %21, null
  br i1 %22, label %23, label %28

23:                                               ; preds = %20
  %24 = load ptr, ptr %4, align 8
  %25 = load ptr, ptr %3, align 8
  %26 = call zeroext i1 %24(ptr noundef %25)
  br i1 %26, label %28, label %27

27:                                               ; preds = %23
  br label %43

28:                                               ; preds = %23, %20
  %29 = load ptr, ptr %3, align 8
  %30 = getelementptr inbounds nuw %struct.Job, ptr %29, i32 0, i32 18
  %31 = load i8, ptr %30, align 1, !range !7, !noundef !8
  %32 = trunc i8 %31 to i1
  br i1 %32, label %34, label %33

33:                                               ; preds = %28
  br label %35

34:                                               ; preds = %28
  call void @__assert_fail(ptr noundef @.str.15, ptr noundef @.str, i32 noundef 549, ptr noundef @__PRETTY_FUNCTION__.job_enter_cond_locked) #20
  unreachable

35:                                               ; preds = %33
  %36 = load ptr, ptr %3, align 8
  %37 = getelementptr inbounds nuw %struct.Job, ptr %36, i32 0, i32 11
  call void @timer_del(ptr noundef %37)
  %38 = load ptr, ptr %3, align 8
  %39 = getelementptr inbounds nuw %struct.Job, ptr %38, i32 0, i32 13
  store i8 1, ptr %39, align 4
  call void @job_unlock()
  %40 = load ptr, ptr %3, align 8
  %41 = getelementptr inbounds nuw %struct.Job, ptr %40, i32 0, i32 2
  %42 = load ptr, ptr %41, align 8
  call void @aio_co_wake(ptr noundef %42)
  call void @job_lock()
  br label %43

43:                                               ; preds = %35, %27, %19, %13, %7
  ret void
}

; Function Attrs: nounwind sspstrong uwtable
define dso_local void @job_pause_locked(ptr noundef %0) #0 {
  %2 = alloca ptr, align 8
  store ptr %0, ptr %2, align 8
  %3 = load ptr, ptr %2, align 8
  %4 = getelementptr inbounds nuw %struct.Job, ptr %3, i32 0, i32 12
  %5 = load i32, ptr %4, align 8
  %6 = add i32 %5, 1
  store i32 %6, ptr %4, align 8
  %7 = load ptr, ptr %2, align 8
  %8 = getelementptr inbounds nuw %struct.Job, ptr %7, i32 0, i32 14
  %9 = load i8, ptr %8, align 1, !range !7, !noundef !8
  %10 = trunc i8 %9 to i1
  br i1 %10, label %13, label %11

11:                                               ; preds = %1
  %12 = load ptr, ptr %2, align 8
  call void @job_enter_cond_locked(ptr noundef %12, ptr noundef null)
  br label %13

13:                                               ; preds = %11, %1
  ret void
}

; Function Attrs: nounwind sspstrong uwtable
define dso_local void @job_user_pause_locked(ptr noundef %0, ptr noundef %1) #0 {
  %3 = alloca ptr, align 8
  %4 = alloca ptr, align 8
  store ptr %0, ptr %3, align 8
  store ptr %1, ptr %4, align 8
  %5 = load ptr, ptr %3, align 8
  %6 = load ptr, ptr %4, align 8
  %7 = call i32 @job_apply_verb_locked(ptr noundef %5, i32 noundef 1, ptr noundef %6)
  %8 = icmp ne i32 %7, 0
  br i1 %8, label %9, label %10

9:                                                ; preds = %2
  br label %21

10:                                               ; preds = %2
  %11 = load ptr, ptr %3, align 8
  %12 = getelementptr inbounds nuw %struct.Job, ptr %11, i32 0, i32 15
  %13 = load i8, ptr %12, align 2, !range !7, !noundef !8
  %14 = trunc i8 %13 to i1
  br i1 %14, label %15, label %17

15:                                               ; preds = %10
  %16 = load ptr, ptr %4, align 8
  call void (ptr, ptr, i32, ptr, ptr, ...) @error_setg_internal(ptr noundef %16, ptr noundef @.str, i32 noundef 722, ptr noundef @__func__.job_user_pause_locked, ptr noundef @.str.18)
  br label %21

17:                                               ; preds = %10
  %18 = load ptr, ptr %3, align 8
  %19 = getelementptr inbounds nuw %struct.Job, ptr %18, i32 0, i32 15
  store i8 1, ptr %19, align 2
  %20 = load ptr, ptr %3, align 8
  call void @job_pause_locked(ptr noundef %20)
  br label %21

21:                                               ; preds = %17, %15, %9
  ret void
}