; Function Attrs: nounwind sspstrong uwtable
define dso_local void @job_user_pause_locked(ptr noundef %0, ptr noundef %1) local_unnamed_addr #0 {
  %3 = tail call i32 @job_apply_verb_locked(ptr noundef %0, i32 noundef 1, ptr noundef %1)
  %.not = icmp eq i32 %3, 0
  br i1 %.not, label %4, label %job_pause_locked.exit

4:                                                ; preds = %2
  %5 = getelementptr inbounds nuw i8, ptr %0, i64 182
  %6 = load i8, ptr %5, align 2, !range !4, !noundef !5
  %7 = trunc nuw i8 %6 to i1
  br i1 %7, label %8, label %9

8:                                                ; preds = %4
  tail call void (ptr, ptr, i32, ptr, ptr, ...) @error_setg_internal(ptr noundef %1, ptr noundef nonnull @.str, i32 noundef 722, ptr noundef nonnull @__func__.job_user_pause_locked, ptr noundef nonnull @.str.18) #15
  br label %job_pause_locked.exit

9:                                                ; preds = %4
  store i8 1, ptr %5, align 2
  %10 = getelementptr inbounds nuw i8, ptr %0, i64 176
  %11 = load i32, ptr %10, align 8
  %12 = add i32 %11, 1
  store i32 %12, ptr %10, align 8
  %13 = getelementptr inbounds nuw i8, ptr %0, i64 181
  %14 = load i8, ptr %13, align 1, !range !4, !noundef !5
  %15 = trunc nuw i8 %14 to i1
  br i1 %15, label %job_pause_locked.exit, label %16

16:                                               ; preds = %9
  %17 = getelementptr i8, ptr %0, i64 16
  %.val.i.i = load ptr, ptr %17, align 8
  %.not10.i.i = icmp eq ptr %.val.i.i, null
  br i1 %.not10.i.i, label %job_pause_locked.exit, label %18

18:                                               ; preds = %16
  %19 = getelementptr inbounds nuw i8, ptr %0, i64 185
  %20 = load i8, ptr %19, align 1, !range !4, !noundef !5
  %21 = trunc nuw i8 %20 to i1
  br i1 %21, label %job_pause_locked.exit, label %22

22:                                               ; preds = %18
  %23 = getelementptr inbounds nuw i8, ptr %0, i64 180
  %24 = load i8, ptr %23, align 4, !range !4, !noundef !5
  %25 = trunc nuw i8 %24 to i1
  br i1 %25, label %job_pause_locked.exit, label %26

26:                                               ; preds = %22
  %27 = getelementptr inbounds nuw i8, ptr %0, i64 128
  tail call void @timer_del(ptr noundef nonnull %27) #15
  store i8 1, ptr %23, align 4
  tail call void @qemu_mutex_unlock_impl(ptr noundef nonnull @job_mutex, ptr noundef nonnull @.str, i32 noundef 106) #15
  %28 = load ptr, ptr %17, align 8
  tail call void @aio_co_wake(ptr noundef %28) #15
  %29 = load atomic i64, ptr @qemu_mutex_lock_func monotonic, align 8
  %30 = inttoptr i64 %29 to ptr
  tail call void %30(ptr noundef nonnull @job_mutex, ptr noundef nonnull @.str, i32 noundef 101) #15
  br label %job_pause_locked.exit

job_pause_locked.exit:                            ; preds = %26, %22, %18, %16, %9, %2, %8
  ret void
}